target datalayout = "e-m:e-p270:32:32-p271:32:32-p272:64:64-i64:64-i128:128-f80:128-n8:16:32:64-S128"
target triple = "x86_64-pc-linux-gnu"

%struct.XLogRecoveryCtlData = type { i8, i8, %struct.Latch, i64, i64, i32, i64, i32, i64, i64, i32, %struct.ConditionVariable, i8 }
%struct.Latch = type { i32, i32, i8, i32 }
%struct.ConditionVariable = type { i8, %struct.proclist_head }
%struct.proclist_head = type { i32, i32 }
%struct.dirent = type { i64, i64, i16, i8, [256 x i8] }

@reachedConsistency = dso_local global i8 0, align 1
@XLogRecoveryCtl = internal global ptr null, align 8
@.str.6 = private unnamed_addr constant [15 x i8] c"xlogrecovery.c\00", align 1
@backupEndRequired = internal global i8 0, align 1
@.str.13 = private unnamed_addr constant [10 x i8] c"pg_tblspc\00", align 1
@backupStartPoint = internal global i64 0, align 8
@backupEndPoint = internal global i64 0, align 8
@minRecoveryPoint = internal global i64 0, align 8
@IsUnderPostmaster = external global i8, align 1
@LocalHotStandbyActive = internal global i8 0, align 1
@standbyState = external global i32, align 4
@.str.125 = private unnamed_addr constant [22 x i8] c"end of backup reached\00", align 1
@__func__.CheckRecoveryConsistency = private unnamed_addr constant [25 x i8] c"CheckRecoveryConsistency\00", align 1
@.str.126 = private unnamed_addr constant [64 x i8] c"completed backup recovery with redo LSN %X/%X and end LSN %X/%X\00", align 1
@.str.127 = private unnamed_addr constant [43 x i8] c"consistent recovery state reached at %X/%X\00", align 1
@.str.128 = private unnamed_addr constant [11 x i8] c"0123456789\00", align 1
@.str.129 = private unnamed_addr constant [6 x i8] c"%s/%s\00", align 1
@allow_in_place_tablespaces = external global i8, align 1
@.str.130 = private unnamed_addr constant [44 x i8] c"unexpected directory entry \22%s\22 found in %s\00", align 1
@.str.131 = private unnamed_addr constant [55 x i8] c"All directory entries in %s/ should be symbolic links.\00", align 1
@.str.132 = private unnamed_addr constant [106 x i8] c"Remove those directories, or set \22allow_in_place_tablespaces\22 to ON transiently to let recovery complete.\00", align 1
@__func__.CheckTablespaceDirectory = private unnamed_addr constant [25 x i8] c"CheckTablespaceDirectory\00", align 1

; Function Attrs: inlinehint nounwind uwtable
define internal i32 @tas(ptr noundef %0) #7 {
  %2 = alloca ptr, align 8
  %3 = alloca i8, align 1
  store ptr %0, ptr %2, align 8
  call void @llvm.lifetime.start.p0(i64 1, ptr %3) #14
  store i8 1, ptr %3, align 1
  %4 = load i8, ptr %3, align 1
  %5 = load ptr, ptr %2, align 8
  %6 = call i8 asm sideeffect "\09lock\09\09\09\0A\09xchgb\09$0,$1\09\0A", "=q,=*m,0,*m,~{memory},~{cc},~{dirflag},~{fpsr},~{flags}"(ptr elementtype(i8) %5, i8 %4, ptr elementtype(i8) %5) #14, !srcloc !13
  store i8 %6, ptr %3, align 1
  %7 = load i8, ptr %3, align 1
  %8 = zext i8 %7 to i32
  call void @llvm.lifetime.end.p0(i64 1, ptr %3) #14
  ret i32 %8
}

; Function Attrs: nounwind uwtable
define internal void @CheckTablespaceDirectory() #0 {
  %1 = alloca ptr, align 8
  %2 = alloca ptr, align 8
  %3 = alloca [1034 x i8], align 16
  %4 = alloca i32, align 4
  call void @llvm.lifetime.start.p0(i64 8, ptr %1) #14
  call void @llvm.lifetime.start.p0(i64 8, ptr %2) #14
  %5 = call ptr @AllocateDir(ptr noundef @.str.13)
  store ptr %5, ptr %1, align 8
  br label %6

6:                                                ; preds = %77, %75, %0
  %7 = load ptr, ptr %1, align 8
  %8 = call ptr @ReadDir(ptr noundef %7, ptr noundef @.str.13)
  store ptr %8, ptr %2, align 8
  %9 = icmp ne ptr %8, null
  br i1 %9, label %10, label %78

10:                                               ; preds = %6
  call void @llvm.lifetime.start.p0(i64 1034, ptr %3) #14
  %11 = load ptr, ptr %2, align 8
  %12 = getelementptr inbounds nuw %struct.dirent, ptr %11, i32 0, i32 4
  %13 = getelementptr inbounds [256 x i8], ptr %12, i64 0, i64 0
  %14 = call i64 @strspn(ptr noundef %13, ptr noundef @.str.128) #16
  %15 = load ptr, ptr %2, align 8
  %16 = getelementptr inbounds nuw %struct.dirent, ptr %15, i32 0, i32 4
  %17 = getelementptr inbounds [256 x i8], ptr %16, i64 0, i64 0
  %18 = call i64 @strlen(ptr noundef %17) #16
  %19 = icmp ne i64 %14, %18
  br i1 %19, label %20, label %21

20:                                               ; preds = %10
  store i32 2, ptr %4, align 4
  br label %75, !llvm.loop !30

21:                                               ; preds = %10
  %22 = getelementptr inbounds [1034 x i8], ptr %3, i64 0, i64 0
  %23 = load ptr, ptr %2, align 8
  %24 = getelementptr inbounds nuw %struct.dirent, ptr %23, i32 0, i32 4
  %25 = getelementptr inbounds [256 x i8], ptr %24, i64 0, i64 0
  %26 = call i32 (ptr, i64, ptr, ...) @pg_snprintf(ptr noundef %22, i64 noundef 1034, ptr noundef @.str.129, ptr noundef @.str.13, ptr noundef %25)
  %27 = getelementptr inbounds [1034 x i8], ptr %3, i64 0, i64 0
  %28 = load ptr, ptr %2, align 8
  %29 = call i32 @get_dirent_type(ptr noundef %27, ptr noundef %28, i1 noundef zeroext false, i32 noundef 21)
  %30 = icmp ne i32 %29, 4
  br i1 %30, label %31, label %74

31:                                               ; preds = %21
  br label %32

32:                                               ; preds = %31
  %33 = load i8, ptr @allow_in_place_tablespaces, align 1, !range !4, !noundef !5
  %34 = trunc i8 %33 to i1
  %35 = select i1 %34, i32 19, i32 23
  %36 = call i1 @llvm.is.constant.i32(i32 %35)
  br i1 %36, label %37, label %47

37:                                               ; preds = %32
  %38 = load i8, ptr @allow_in_place_tablespaces, align 1, !range !4, !noundef !5
  %39 = trunc i8 %38 to i1
  %40 = select i1 %39, i32 19, i32 23
  %41 = icmp sge i32 %40, 21
  br i1 %41, label %42, label %47

42:                                               ; preds = %37
  %43 = load i8, ptr @allow_in_place_tablespaces, align 1, !range !4, !noundef !5
  %44 = trunc i8 %43 to i1
  %45 = select i1 %44, i32 19, i32 23
  %46 = call zeroext i1 @errstart_cold(i32 noundef %45, ptr noundef null) #15
  br i1 %46, label %52, label %60

47:                                               ; preds = %37, %32
  %48 = load i8, ptr @allow_in_place_tablespaces, align 1, !range !4, !noundef !5
  %49 = trunc i8 %48 to i1
  %50 = select i1 %49, i32 19, i32 23
  %51 = call zeroext i1 @errstart(i32 noundef %50, ptr noundef null)
  br i1 %51, label %52, label %60

52:                                               ; preds = %47, %42
  %53 = call i32 @errcode(i32 noundef 16779816)
  %54 = load ptr, ptr %2, align 8
  %55 = getelementptr inbounds nuw %struct.dirent, ptr %54, i32 0, i32 4
  %56 = getelementptr inbounds [256 x i8], ptr %55, i64 0, i64 0
  %57 = call i32 (ptr, ...) @errmsg(ptr noundef @.str.130, ptr noundef %56, ptr noundef @.str.13)
  %58 = call i32 (ptr, ...) @errdetail(ptr noundef @.str.131, ptr noundef @.str.13)
  %59 = call i32 (ptr, ...) @errhint(ptr noundef @.str.132)
  call void @errfinish(ptr noundef @.str.6, i32 noundef 2168, ptr noundef @__func__.CheckTablespaceDirectory)
  br label %60

60:                                               ; preds = %52, %47, %42
  %61 = load i8, ptr @allow_in_place_tablespaces, align 1, !range !4, !noundef !5
  %62 = trunc i8 %61 to i1
  %63 = select i1 %62, i32 19, i32 23
  %64 = call i1 @llvm.is.constant.i32(i32 %63)
  br i1 %64, label %65, label %71

65:                                               ; preds = %60
  %66 = load i8, ptr @allow_in_place_tablespaces, align 1, !range !4, !noundef !5
  %67 = trunc i8 %66 to i1
  %68 = select i1 %67, i32 19, i32 23
  %69 = icmp sge i32 %68, 21
  br i1 %69, label %70, label %71

70:                                               ; preds = %65
  unreachable

71:                                               ; preds = %65, %60
  br label %72

72:                                               ; preds = %71
  br label %73

73:                                               ; preds = %72
  br label %74

74:                                               ; preds = %73, %21
  store i32 0, ptr %4, align 4
  br label %75

75:                                               ; preds = %74, %20
  call void @llvm.lifetime.end.p0(i64 1034, ptr %3) #14
  %76 = load i32, ptr %4, align 4
  switch i32 %76, label %79 [
    i32 0, label %77
    i32 2, label %6
  ]

77:                                               ; preds = %75
  br label %6, !llvm.loop !30

78:                                               ; preds = %6
  call void @llvm.lifetime.end.p0(i64 8, ptr %2) #14
  call void @llvm.lifetime.end.p0(i64 8, ptr %1) #14
  ret void

79:                                               ; preds = %75
  unreachable
}

; Function Attrs: nounwind uwtable
define internal void @CheckRecoveryConsistency() #0 {
  %1 = alloca i64, align 8
  %2 = alloca i32, align 4
  %3 = alloca i32, align 4
  %4 = alloca i64, align 8
  %5 = alloca i64, align 8
  %6 = alloca i32, align 4
  %7 = alloca i32, align 4
  %8 = alloca i32, align 4
  call void @llvm.lifetime.start.p0(i64 8, ptr %1) #14
  call void @llvm.lifetime.start.p0(i64 4, ptr %2) #14
  %9 = load i64, ptr @minRecoveryPoint, align 8
  %10 = icmp eq i64 %9, 0
  br i1 %10, label %11, label %12

11:                                               ; preds = %0
  store i32 1, ptr %3, align 4
  br label %126

12:                                               ; preds = %0
  %13 = load ptr, ptr @XLogRecoveryCtl, align 8
  %14 = getelementptr inbounds nuw %struct.XLogRecoveryCtlData, ptr %13, i32 0, i32 4
  %15 = load i64, ptr %14, align 8
  store i64 %15, ptr %1, align 8
  %16 = load ptr, ptr @XLogRecoveryCtl, align 8
  %17 = getelementptr inbounds nuw %struct.XLogRecoveryCtlData, ptr %16, i32 0, i32 5
  %18 = load i32, ptr %17, align 8
  store i32 %18, ptr %2, align 4
  %19 = load i64, ptr @backupEndPoint, align 8
  %20 = icmp eq i64 %19, 0
  br i1 %20, label %66, label %21

21:                                               ; preds = %12
  %22 = load i64, ptr @backupEndPoint, align 8
  %23 = load i64, ptr %1, align 8
  %24 = icmp ule i64 %22, %23
  br i1 %24, label %25, label %66

25:                                               ; preds = %21
  call void @llvm.lifetime.start.p0(i64 8, ptr %4) #14
  %26 = load i64, ptr @backupStartPoint, align 8
  store i64 %26, ptr %4, align 8
  call void @llvm.lifetime.start.p0(i64 8, ptr %5) #14
  %27 = load i64, ptr @backupEndPoint, align 8
  store i64 %27, ptr %5, align 8
  br label %28

28:                                               ; preds = %25
  br i1 false, label %29, label %31

29:                                               ; preds = %28
  %30 = call zeroext i1 @errstart_cold(i32 noundef 14, ptr noundef null) #15
  br i1 %30, label %33, label %35

31:                                               ; preds = %28
  %32 = call zeroext i1 @errstart(i32 noundef 14, ptr noundef null)
  br i1 %32, label %33, label %35

33:                                               ; preds = %31, %29
  %34 = call i32 (ptr, ...) @errmsg_internal(ptr noundef @.str.125)
  call void @errfinish(ptr noundef @.str.6, i32 noundef 2208, ptr noundef @__func__.CheckRecoveryConsistency)
  br label %35

35:                                               ; preds = %33, %31, %29
  br label %36

36:                                               ; preds = %35
  br label %37

37:                                               ; preds = %36
  %38 = load i64, ptr %1, align 8
  %39 = load i32, ptr %2, align 4
  call void @ReachedEndOfBackup(i64 noundef %38, i32 noundef %39)
  store i64 0, ptr @backupStartPoint, align 8
  store i64 0, ptr @backupEndPoint, align 8
  store i8 0, ptr @backupEndRequired, align 1
  br label %40

40:                                               ; preds = %37
  br i1 false, label %41, label %43

41:                                               ; preds = %40
  %42 = call zeroext i1 @errstart_cold(i32 noundef 15, ptr noundef null) #15
  br i1 %42, label %45, label %63

43:                                               ; preds = %40
  %44 = call zeroext i1 @errstart(i32 noundef 15, ptr noundef null)
  br i1 %44, label %45, label %63

45:                                               ; preds = %43, %41
  br label %46

46:                                               ; preds = %45
  br label %47

47:                                               ; preds = %46
  br label %48

48:                                               ; preds = %47
  store i32 1, ptr %6, align 4
  %49 = load i64, ptr %4, align 8
  %50 = lshr i64 %49, 32
  %51 = trunc i64 %50 to i32
  %52 = load i64, ptr %4, align 8
  %53 = trunc i64 %52 to i32
  br label %54

54:                                               ; preds = %48
  br label %55

55:                                               ; preds = %54
  br label %56

56:                                               ; preds = %55
  store i32 1, ptr %7, align 4
  %57 = load i64, ptr %5, align 8
  %58 = lshr i64 %57, 32
  %59 = trunc i64 %58 to i32
  %60 = load i64, ptr %5, align 8
  %61 = trunc i64 %60 to i32
  %62 = call i32 (ptr, ...) @errmsg(ptr noundef @.str.126, i32 noundef %51, i32 noundef %53, i32 noundef %59, i32 noundef %61)
  call void @errfinish(ptr noundef @.str.6, i32 noundef 2222, ptr noundef @__func__.CheckRecoveryConsistency)
  br label %63

63:                                               ; preds = %56, %43, %41
  br label %64

64:                                               ; preds = %63
  br label %65

65:                                               ; preds = %64
  call void @llvm.lifetime.end.p0(i64 8, ptr %5) #14
  call void @llvm.lifetime.end.p0(i64 8, ptr %4) #14
  br label %66

66:                                               ; preds = %65, %21, %12
  %67 = load i8, ptr @reachedConsistency, align 1, !range !4, !noundef !5
  %68 = trunc i8 %67 to i1
  br i1 %68, label %95, label %69

69:                                               ; preds = %66
  %70 = load i8, ptr @backupEndRequired, align 1, !range !4, !noundef !5
  %71 = trunc i8 %70 to i1
  br i1 %71, label %95, label %72

72:                                               ; preds = %69
  %73 = load i64, ptr @minRecoveryPoint, align 8
  %74 = load i64, ptr %1, align 8
  %75 = icmp ule i64 %73, %74
  br i1 %75, label %76, label %95

76:                                               ; preds = %72
  call void @XLogCheckInvalidPages()
  call void @CheckTablespaceDirectory()
  store i8 1, ptr @reachedConsistency, align 1
  br label %77

77:                                               ; preds = %76
  br i1 false, label %78, label %80

78:                                               ; preds = %77
  %79 = call zeroext i1 @errstart_cold(i32 noundef 15, ptr noundef null) #15
  br i1 %79, label %82, label %92

80:                                               ; preds = %77
  %81 = call zeroext i1 @errstart(i32 noundef 15, ptr noundef null)
  br i1 %81, label %82, label %92

82:                                               ; preds = %80, %78
  br label %83

83:                                               ; preds = %82
  br label %84

84:                                               ; preds = %83
  br label %85

85:                                               ; preds = %84
  store i32 1, ptr %8, align 4
  %86 = load i64, ptr %1, align 8
  %87 = lshr i64 %86, 32
  %88 = trunc i64 %87 to i32
  %89 = load i64, ptr %1, align 8
  %90 = trunc i64 %89 to i32
  %91 = call i32 (ptr, ...) @errmsg(ptr noundef @.str.127, i32 noundef %88, i32 noundef %90)
  call void @errfinish(ptr noundef @.str.6, i32 noundef 2251, ptr noundef @__func__.CheckRecoveryConsistency)
  br label %92

92:                                               ; preds = %85, %80, %78
  br label %93

93:                                               ; preds = %92
  br label %94

94:                                               ; preds = %93
  br label %95

95:                                               ; preds = %94, %72, %69, %66
  %96 = load i32, ptr @standbyState, align 4
  %97 = icmp eq i32 %96, 3
  br i1 %97, label %98, label %125

98:                                               ; preds = %95
  %99 = load i8, ptr @LocalHotStandbyActive, align 1, !range !4, !noundef !5
  %100 = trunc i8 %99 to i1
  br i1 %100, label %125, label %101

101:                                              ; preds = %98
  %102 = load i8, ptr @reachedConsistency, align 1, !range !4, !noundef !5
  %103 = trunc i8 %102 to i1
  br i1 %103, label %104, label %125

104:                                              ; preds = %101
  %105 = load i8, ptr @IsUnderPostmaster, align 1, !range !4, !noundef !5
  %106 = trunc i8 %105 to i1
  br i1 %106, label %107, label %125

107:                                              ; preds = %104
  %108 = load ptr, ptr @XLogRecoveryCtl, align 8
  %109 = getelementptr inbounds nuw %struct.XLogRecoveryCtlData, ptr %108, i32 0, i32 12
  %110 = call i32 @tas(ptr noundef %109)
  %111 = icmp ne i32 %110, 0
  br i1 %111, label %112, label %116

112:                                              ; preds = %107
  %113 = load ptr, ptr @XLogRecoveryCtl, align 8
  %114 = getelementptr inbounds nuw %struct.XLogRecoveryCtlData, ptr %113, i32 0, i32 12
  %115 = call i32 @s_lock(ptr noundef %114, ptr noundef @.str.6, i32 noundef 2264, ptr noundef @__func__.CheckRecoveryConsistency)
  br label %117

116:                                              ; preds = %107
  br label %117

117:                                              ; preds = %116, %112
  %118 = load ptr, ptr @XLogRecoveryCtl, align 8
  %119 = getelementptr inbounds nuw %struct.XLogRecoveryCtlData, ptr %118, i32 0, i32 0
  store i8 1, ptr %119, align 8
  br label %120

120:                                              ; preds = %117
  call void asm sideeffect "", "~{memory},~{dirflag},~{fpsr},~{flags}"() #14, !srcloc !14
  %121 = load ptr, ptr @XLogRecoveryCtl, align 8
  %122 = getelementptr inbounds nuw %struct.XLogRecoveryCtlData, ptr %121, i32 0, i32 12
  store i8 0, ptr %122, align 8
  br label %123

123:                                              ; preds = %120
  br label %124

124:                                              ; preds = %123
  store i8 1, ptr @LocalHotStandbyActive, align 1
  call void @SendPostmasterSignal(i32 noundef 1)
  br label %125

125:                                              ; preds = %124, %104, %101, %98, %95
  store i32 0, ptr %3, align 4
  br label %126

126:                                              ; preds = %125, %11
  call void @llvm.lifetime.end.p0(i64 4, ptr %2) #14
  call void @llvm.lifetime.end.p0(i64 8, ptr %1) #14
  %127 = load i32, ptr %3, align 4
  switch i32 %127, label %129 [
    i32 0, label %128
    i32 1, label %128
  ]

128:                                              ; preds = %126, %126
  ret void

129:                                              ; preds = %126
  unreachable
}