; Function Attrs: nounwind uwtable
define internal fastcc void @CheckRecoveryConsistency() unnamed_addr #2 {
  %1 = alloca [1034 x i8], align 16
  %2 = load i64, ptr @minRecoveryPoint, align 8
  %3 = icmp eq i64 %2, 0
  br i1 %3, label %87, label %4

4:                                                ; preds = %0
  %5 = load ptr, ptr @XLogRecoveryCtl, align 8
  %6 = getelementptr inbounds nuw i8, ptr %5, i64 32
  %7 = load i64, ptr %6, align 8
  %8 = freeze i64 %7
  %9 = getelementptr inbounds nuw i8, ptr %5, i64 40
  %10 = load i32, ptr %9, align 8
  %11 = load i64, ptr @backupEndPoint, align 8
  %12 = add i64 %11, -1
  %or.cond.not = icmp ult i64 %12, %8
  br i1 %or.cond.not, label %13, label %28

13:                                               ; preds = %4
  %14 = load i64, ptr @backupStartPoint, align 8
  %15 = tail call zeroext i1 @errstart(i32 noundef 14, ptr noundef null) #23
  br i1 %15, label %16, label %18

16:                                               ; preds = %13
  %17 = tail call i32 (ptr, ...) @errmsg_internal(ptr noundef nonnull @.str.125) #23
  tail call void @errfinish(ptr noundef nonnull @.str.6, i32 noundef 2208, ptr noundef nonnull @__func__.CheckRecoveryConsistency) #23
  br label %18

18:                                               ; preds = %16, %13
  tail call void @ReachedEndOfBackup(i64 noundef %8, i32 noundef %10) #23
  store i64 0, ptr @backupStartPoint, align 8
  store i64 0, ptr @backupEndPoint, align 8
  store i8 0, ptr @backupEndRequired, align 1
  %19 = tail call zeroext i1 @errstart(i32 noundef 15, ptr noundef null) #23
  br i1 %19, label %20, label %28

20:                                               ; preds = %18
  %21 = lshr i64 %14, 32
  %22 = trunc nuw i64 %21 to i32
  %23 = trunc i64 %14 to i32
  %24 = lshr i64 %11, 32
  %25 = trunc nuw i64 %24 to i32
  %26 = trunc i64 %11 to i32
  %27 = tail call i32 (ptr, ...) @errmsg(ptr noundef nonnull @.str.126, i32 noundef %22, i32 noundef %23, i32 noundef %25, i32 noundef %26) #23
  tail call void @errfinish(ptr noundef nonnull @.str.6, i32 noundef 2222, ptr noundef nonnull @__func__.CheckRecoveryConsistency) #23
  br label %28

28:                                               ; preds = %18, %20, %4
  %29 = load i8, ptr @reachedConsistency, align 1, !range !4, !noundef !5
  %30 = trunc nuw i8 %29 to i1
  br i1 %30, label %63, label %31

31:                                               ; preds = %28
  %32 = load i8, ptr @backupEndRequired, align 1, !range !4, !noundef !5
  %33 = trunc nuw i8 %32 to i1
  %34 = load i64, ptr @minRecoveryPoint, align 8
  %.not11 = icmp ugt i64 %34, %8
  %or.cond13 = select i1 %33, i1 true, i1 %.not11
  br i1 %or.cond13, label %63, label %35

35:                                               ; preds = %31
  tail call void @XLogCheckInvalidPages() #23
  %36 = tail call ptr @AllocateDir(ptr noundef nonnull @.str.13) #23
  %37 = tail call ptr @ReadDir(ptr noundef %36, ptr noundef nonnull @.str.13) #23
  %.not10.i = icmp eq ptr %37, null
  br i1 %.not10.i, label %CheckTablespaceDirectory.exit, label %.lr.ph.i

.lr.ph.i:                                         ; preds = %35, %55
  %38 = phi ptr [ %56, %55 ], [ %37, %35 ]
  call void @llvm.lifetime.start.p0(i64 1034, ptr nonnull %1) #23
  %39 = getelementptr inbounds nuw i8, ptr %38, i64 19
  %40 = call i64 @strspn(ptr noundef nonnull %39, ptr noundef nonnull @.str.128) #26
  %41 = call i64 @strlen(ptr noundef nonnull dereferenceable(1) %39) #26
  %.not7.i = icmp eq i64 %40, %41
  br i1 %.not7.i, label %42, label %55, !llvm.loop !27

42:                                               ; preds = %.lr.ph.i
  %43 = call i32 (ptr, i64, ptr, ...) @pg_snprintf(ptr noundef nonnull %1, i64 noundef 1034, ptr noundef nonnull @.str.129, ptr noundef nonnull @.str.13, ptr noundef nonnull %39) #23
  %44 = call i32 @get_dirent_type(ptr noundef nonnull %1, ptr noundef nonnull %38, i1 noundef zeroext false, i32 noundef 21) #23
  %.not8.i = icmp eq i32 %44, 4
  br i1 %.not8.i, label %55, label %45

45:                                               ; preds = %42
  %46 = load i8, ptr @allow_in_place_tablespaces, align 1, !range !4, !noundef !5
  %47 = trunc nuw i8 %46 to i1
  %48 = select i1 %47, i32 19, i32 23
  %49 = call zeroext i1 @errstart(i32 noundef %48, ptr noundef null) #23
  br i1 %49, label %50, label %55

50:                                               ; preds = %45
  %51 = call i32 @errcode(i32 noundef 16779816) #23
  %52 = call i32 (ptr, ...) @errmsg(ptr noundef nonnull @.str.130, ptr noundef nonnull %39, ptr noundef nonnull @.str.13) #23
  %53 = call i32 (ptr, ...) @errdetail(ptr noundef nonnull @.str.131, ptr noundef nonnull @.str.13) #23
  %54 = call i32 (ptr, ...) @errhint(ptr noundef nonnull @.str.132) #23
  call void @errfinish(ptr noundef nonnull @.str.6, i32 noundef 2168, ptr noundef nonnull @__func__.CheckTablespaceDirectory) #23
  br label %55

55:                                               ; preds = %45, %50, %42, %.lr.ph.i
  call void @llvm.lifetime.end.p0(i64 1034, ptr nonnull %1) #23
  %56 = call ptr @ReadDir(ptr noundef %36, ptr noundef nonnull @.str.13) #23
  %.not.i = icmp eq ptr %56, null
  br i1 %.not.i, label %CheckTablespaceDirectory.exit, label %.lr.ph.i

CheckTablespaceDirectory.exit:                    ; preds = %55, %35
  store i8 1, ptr @reachedConsistency, align 1
  %57 = call zeroext i1 @errstart(i32 noundef 15, ptr noundef null) #23
  br i1 %57, label %58, label %63

58:                                               ; preds = %CheckTablespaceDirectory.exit
  %59 = lshr i64 %8, 32
  %60 = trunc nuw i64 %59 to i32
  %61 = trunc i64 %8 to i32
  %62 = call i32 (ptr, ...) @errmsg(ptr noundef nonnull @.str.127, i32 noundef %60, i32 noundef %61) #23
  call void @errfinish(ptr noundef nonnull @.str.6, i32 noundef 2251, ptr noundef nonnull @__func__.CheckRecoveryConsistency) #23
  br label %63

63:                                               ; preds = %CheckTablespaceDirectory.exit, %58, %31, %28
  %64 = load i32, ptr @standbyState, align 4
  %65 = icmp eq i32 %64, 3
  br i1 %65, label %66, label %87

66:                                               ; preds = %63
  %67 = load i8, ptr @LocalHotStandbyActive, align 1, !range !4, !noundef !5
  %68 = trunc nuw i8 %67 to i1
  br i1 %68, label %87, label %69

69:                                               ; preds = %66
  %70 = load i8, ptr @reachedConsistency, align 1, !range !4, !noundef !5
  %71 = trunc nuw i8 %70 to i1
  br i1 %71, label %72, label %87

72:                                               ; preds = %69
  %73 = load i8, ptr @IsUnderPostmaster, align 1, !range !4, !noundef !5
  %74 = trunc nuw i8 %73 to i1
  br i1 %74, label %75, label %87

75:                                               ; preds = %72
  %76 = load ptr, ptr @XLogRecoveryCtl, align 8
  %77 = getelementptr inbounds nuw i8, ptr %76, i64 96
  %78 = call i8 asm sideeffect "\09lock\09\09\09\0A\09xchgb\09$0,$1\09\0A", "=q,=*m,0,*m,~{memory},~{cc},~{dirflag},~{fpsr},~{flags}"(ptr nonnull elementtype(i8) %77, i8 1, ptr nonnull elementtype(i8) %77) #23, !srcloc !10
  %.not12 = icmp eq i8 %78, 0
  br i1 %.not12, label %83, label %79

79:                                               ; preds = %75
  %80 = load ptr, ptr @XLogRecoveryCtl, align 8
  %81 = getelementptr inbounds nuw i8, ptr %80, i64 96
  %82 = call i32 @s_lock(ptr noundef nonnull %81, ptr noundef nonnull @.str.6, i32 noundef 2264, ptr noundef nonnull @__func__.CheckRecoveryConsistency) #23
  br label %83

83:                                               ; preds = %75, %79
  %84 = load ptr, ptr @XLogRecoveryCtl, align 8
  store i8 1, ptr %84, align 8
  call void asm sideeffect "", "~{memory},~{dirflag},~{fpsr},~{flags}"() #23, !srcloc !28
  %85 = load ptr, ptr @XLogRecoveryCtl, align 8
  %86 = getelementptr inbounds nuw i8, ptr %85, i64 96
  store i8 0, ptr %86, align 8
  store i8 1, ptr @LocalHotStandbyActive, align 1
  call void @SendPostmasterSignal(i32 noundef 1) #23
  br label %87

87:                                               ; preds = %63, %66, %69, %72, %83, %0
  ret void
}